; Function Attrs: nounwind uwtable
define range(i32 -2147483648, 1) i32 @av_packet_make_refcounted(ptr noundef %0) local_unnamed_addr #3 {
  %2 = load ptr, ptr %0, align 8, !tbaa !20
  %.not = icmp eq ptr %2, null
  br i1 %.not, label %3, label %packet_alloc.exit.thread

3:                                                ; preds = %1
  %4 = getelementptr inbounds nuw i8, ptr %0, i64 32
  %5 = load i32, ptr %4, align 8, !tbaa !32
  %or.cond.i = icmp ugt i32 %5, 2147483582
  br i1 %or.cond.i, label %packet_alloc.exit.thread, label %6

6:                                                ; preds = %3
  %7 = add nuw nsw i32 %5, 64
  %8 = zext nneg i32 %7 to i64
  %9 = tail call i32 @av_buffer_realloc(ptr noundef nonnull %0, i64 noundef %8) #16
  %10 = icmp slt i32 %9, 0
  br i1 %10, label %packet_alloc.exit.thread, label %11

11:                                               ; preds = %6
  %12 = load ptr, ptr %0, align 8, !tbaa !27
  %13 = getelementptr inbounds nuw i8, ptr %12, i64 8
  %14 = load ptr, ptr %13, align 8, !tbaa !28
  %15 = zext nneg i32 %5 to i64
  %16 = getelementptr inbounds nuw i8, ptr %14, i64 %15
  tail call void @llvm.memset.p0.i64(ptr noundef nonnull align 1 dereferenceable(64) %16, i8 0, i64 64, i1 false)
  %17 = load i32, ptr %4, align 8, !tbaa !32
  %.not13 = icmp eq i32 %17, 0
  br i1 %.not13, label %25, label %18

18:                                               ; preds = %11
  %19 = load ptr, ptr %0, align 8, !tbaa !20
  %20 = getelementptr inbounds nuw i8, ptr %19, i64 8
  %21 = load ptr, ptr %20, align 8, !tbaa !28
  %22 = getelementptr inbounds nuw i8, ptr %0, i64 24
  %23 = load ptr, ptr %22, align 8, !tbaa !31
  %24 = sext i32 %17 to i64
  tail call void @llvm.memcpy.p0.p0.i64(ptr align 1 %21, ptr align 1 %23, i64 %24, i1 false)
  br label %25

25:                                               ; preds = %18, %11
  %26 = load ptr, ptr %0, align 8, !tbaa !20
  %27 = getelementptr inbounds nuw i8, ptr %26, i64 8
  %28 = load ptr, ptr %27, align 8, !tbaa !28
  %29 = getelementptr inbounds nuw i8, ptr %0, i64 24
  store ptr %28, ptr %29, align 8, !tbaa !31
  br label %packet_alloc.exit.thread

packet_alloc.exit.thread:                         ; preds = %6, %3, %1, %25
  %.0 = phi i32 [ 0, %25 ], [ 0, %1 ], [ %9, %6 ], [ -22, %3 ]
  ret i32 %.0
}